; Function Attrs: nounwind uwtable
define ptr @l_Lean_Elab_Term_elabAnonymousCtor___lambda__2(ptr noundef %0, ptr noundef %1, ptr noundef %2, ptr noundef %3, ptr noundef %4, ptr noundef %5, ptr noundef %6, ptr noundef %7, ptr noundef %8, ptr noundef %9) local_unnamed_addr #0 {
  %11 = ptrtoint ptr %2 to i64
  %12 = and i64 %11, 1
  %.not = icmp eq i64 %12, 0
  br i1 %.not, label %13, label %lean_inc.exit

13:                                               ; preds = %10
  %.val.i = load i32, ptr %2, align 4, !tbaa !4
  %14 = icmp sgt i32 %.val.i, 0
  br i1 %14, label %15, label %17, !prof !9

15:                                               ; preds = %13
  %16 = add nuw i32 %.val.i, 1
  store i32 %16, ptr %2, align 4, !tbaa !4
  br label %lean_inc.exit

17:                                               ; preds = %13
  %.not.i = icmp eq i32 %.val.i, 0
  br i1 %.not.i, label %lean_inc.exit, label %18

18:                                               ; preds = %17
  tail call void @lean_inc_ref_cold(ptr noundef nonnull %2) #6
  br label %lean_inc.exit

lean_inc.exit:                                    ; preds = %18, %17, %15, %10
  tail call void @lean_inc_heartbeat() #6
  %19 = tail call noalias ptr @mi_malloc_small(i64 noundef 56) #6
  %20 = icmp eq ptr %19, null
  br i1 %20, label %21, label %lean_alloc_closure.exit

21:                                               ; preds = %lean_inc.exit
  tail call void @lean_internal_panic_out_of_memory() #7
  unreachable

lean_alloc_closure.exit:                          ; preds = %lean_inc.exit
  %22 = getelementptr inbounds nuw i8, ptr %19, i64 4
  store i32 1, ptr %19, align 4, !tbaa !4
  store i32 -184549320, ptr %22, align 4
  %23 = getelementptr inbounds nuw i8, ptr %19, i64 8
  store ptr @l_Lean_Elab_Term_elabTerm___boxed, ptr %23, align 8, !tbaa !10
  %24 = getelementptr inbounds nuw i8, ptr %19, i64 16
  store i16 11, ptr %24, align 8, !tbaa !17
  %25 = getelementptr inbounds nuw i8, ptr %19, i64 18
  store i16 4, ptr %25, align 2, !tbaa !17
  %26 = getelementptr inbounds nuw i8, ptr %19, i64 24
  store ptr %2, ptr %26, align 8, !tbaa !10
  %27 = getelementptr inbounds nuw i8, ptr %19, i64 32
  store ptr %0, ptr %27, align 8, !tbaa !10
  %28 = getelementptr inbounds nuw i8, ptr %19, i64 40
  store ptr inttoptr (i64 3 to ptr), ptr %28, align 8, !tbaa !10
  %29 = getelementptr inbounds nuw i8, ptr %19, i64 48
  store ptr inttoptr (i64 3 to ptr), ptr %29, align 8, !tbaa !10
  %30 = tail call ptr @l_Lean_Elab_Term_withMacroExpansion___rarg(ptr noundef %1, ptr noundef %2, ptr noundef nonnull %19, ptr noundef %3, ptr noundef %4, ptr noundef %5, ptr noundef %6, ptr noundef %7, ptr noundef %8, ptr noundef %9) #6
  ret ptr %30
}